; Function Attrs: nounwind uwtable
define internal fastcc void @Gia_ManSuperCollectXor_rec(ptr noundef readonly captures(none) %0, ptr noundef %1) unnamed_addr #0 {
  %3 = getelementptr i8, ptr %0, i64 32
  %4 = getelementptr inbounds nuw i8, ptr %0, i64 960
  %.val17 = load i64, ptr %1, align 4
  %5 = and i64 %.val17, 2147483648
  %.not.i.i18 = icmp ne i64 %5, 0
  %6 = and i64 %.val17, 536870911
  %7 = icmp eq i64 %6, 536870911
  %narrow.i.not.i19 = or i1 %.not.i.i18, %7
  br i1 %narrow.i.not.i19, label %Gia_ObjIsXor.exit.thread, label %Gia_ObjIsXor.exit.lr.ph

Gia_ObjIsXor.exit.lr.ph:                          ; preds = %2
  %8 = getelementptr i8, ptr %0, i64 144
  br label %Gia_ObjIsXor.exit

Gia_ObjIsXor.exit:                                ; preds = %Gia_ObjIsXor.exit.lr.ph, %tailrecurse
  %9 = phi i64 [ %6, %Gia_ObjIsXor.exit.lr.ph ], [ %78, %tailrecurse ]
  %.val21 = phi i64 [ %.val17, %Gia_ObjIsXor.exit.lr.ph ], [ %.val, %tailrecurse ]
  %.tr1620 = phi ptr [ %1, %Gia_ObjIsXor.exit.lr.ph ], [ %76, %tailrecurse ]
  %10 = trunc i64 %.val21 to i32
  %11 = and i32 %10, 536870911
  %12 = lshr i64 %.val21, 32
  %13 = trunc nuw i64 %12 to i32
  %14 = and i32 %13, 536870911
  %.not = icmp samesign ult i32 %11, %14
  br i1 %.not, label %15, label %Gia_ObjIsXor.exit.thread

15:                                               ; preds = %Gia_ObjIsXor.exit
  %.val12 = load ptr, ptr %3, align 8
  %.val13 = load ptr, ptr %8, align 8
  %16 = ptrtoint ptr %.tr1620 to i64
  %17 = ptrtoint ptr %.val12 to i64
  %18 = sub i64 %16, %17
  %19 = sdiv exact i64 %18, 12
  %sext.i = shl i64 %19, 32
  %20 = ashr exact i64 %sext.i, 30
  %21 = getelementptr inbounds i8, ptr %.val13, i64 %20
  %22 = load i32, ptr %21, align 4
  %23 = icmp sgt i32 %22, 3
  br i1 %23, label %Gia_ObjIsXor.exit.thread, label %24

24:                                               ; preds = %15
  %25 = load ptr, ptr %4, align 8
  %26 = getelementptr i8, ptr %25, i64 4
  %.val11 = load i32, ptr %26, align 4
  %27 = icmp sgt i32 %.val11, 50
  br i1 %27, label %Gia_ObjIsXor.exit.thread, label %tailrecurse

Gia_ObjIsXor.exit.thread:                         ; preds = %Gia_ObjIsXor.exit, %15, %24, %tailrecurse, %2
  %.tr16.lcssa = phi ptr [ %1, %2 ], [ %76, %tailrecurse ], [ %.tr1620, %24 ], [ %.tr1620, %15 ], [ %.tr1620, %Gia_ObjIsXor.exit ]
  %28 = load ptr, ptr %4, align 8
  %.val14 = load ptr, ptr %3, align 8
  %29 = getelementptr inbounds nuw i8, ptr %28, i64 4
  %30 = load i32, ptr %29, align 4
  %31 = load i32, ptr %28, align 8
  %32 = icmp eq i32 %30, %31
  br i1 %32, label %33, label %.Vec_IntGrow.exit10_crit_edge.i

.Vec_IntGrow.exit10_crit_edge.i:                  ; preds = %Gia_ObjIsXor.exit.thread
  %.phi.trans.insert.i = getelementptr inbounds nuw i8, ptr %28, i64 8
  %.pre.i = load ptr, ptr %.phi.trans.insert.i, align 8
  br label %Vec_IntPush.exit

33:                                               ; preds = %Gia_ObjIsXor.exit.thread
  %34 = icmp slt i32 %30, 16
  br i1 %34, label %35, label %43

35:                                               ; preds = %33
  %36 = getelementptr inbounds nuw i8, ptr %28, i64 8
  %37 = load ptr, ptr %36, align 8
  %.not9.i.i = icmp eq ptr %37, null
  br i1 %.not9.i.i, label %40, label %38

38:                                               ; preds = %35
  %39 = tail call dereferenceable_or_null(64) ptr @realloc(ptr noundef nonnull %37, i64 noundef 64) #21
  br label %Vec_IntGrow.exit.i

40:                                               ; preds = %35
  %41 = tail call noalias dereferenceable_or_null(64) ptr @malloc(i64 noundef 64) #20
  br label %Vec_IntGrow.exit.i

Vec_IntGrow.exit.i:                               ; preds = %40, %38
  %42 = phi ptr [ %39, %38 ], [ %41, %40 ]
  store ptr %42, ptr %36, align 8
  store i32 16, ptr %28, align 8
  br label %Vec_IntPush.exit

43:                                               ; preds = %33
  %44 = shl nuw nsw i32 %30, 1
  %45 = getelementptr inbounds nuw i8, ptr %28, i64 8
  %46 = load ptr, ptr %45, align 8
  %.not9.i9.i = icmp eq ptr %46, null
  %47 = zext nneg i32 %44 to i64
  %48 = shl nuw nsw i64 %47, 2
  br i1 %.not9.i9.i, label %51, label %49

49:                                               ; preds = %43
  %50 = tail call ptr @realloc(ptr noundef nonnull %46, i64 noundef %48) #21
  br label %53

51:                                               ; preds = %43
  %52 = tail call noalias ptr @malloc(i64 noundef %48) #20
  br label %53

53:                                               ; preds = %51, %49
  %54 = phi ptr [ %50, %49 ], [ %52, %51 ]
  store ptr %54, ptr %45, align 8
  store i32 %44, ptr %28, align 8
  br label %Vec_IntPush.exit

Vec_IntPush.exit:                                 ; preds = %.Vec_IntGrow.exit10_crit_edge.i, %Vec_IntGrow.exit.i, %53
  %55 = phi ptr [ %.pre.i, %.Vec_IntGrow.exit10_crit_edge.i ], [ %54, %53 ], [ %42, %Vec_IntGrow.exit.i ]
  %56 = ptrtoint ptr %.tr16.lcssa to i64
  %57 = and i64 %56, -2
  %58 = ptrtoint ptr %.val14 to i64
  %59 = sub i64 %57, %58
  %60 = sdiv exact i64 %59, 12
  %61 = trunc i64 %60 to i32
  %62 = shl nsw i32 %61, 1
  %63 = trunc i64 %56 to i32
  %64 = and i32 %63, 1
  %65 = or disjoint i32 %62, %64
  %66 = load i32, ptr %29, align 4
  %67 = add nsw i32 %66, 1
  store i32 %67, ptr %29, align 4
  %68 = sext i32 %66 to i64
  %69 = getelementptr inbounds i32, ptr %55, i64 %68
  store i32 %65, ptr %69, align 4
  ret void

tailrecurse:                                      ; preds = %24
  %70 = sub nsw i64 0, %9
  %71 = getelementptr inbounds %struct.Gia_Obj_t_, ptr %.tr1620, i64 %70
  tail call fastcc void @Gia_ManSuperCollectXor_rec(ptr noundef nonnull %0, ptr noundef nonnull %71)
  %72 = load i64, ptr %.tr1620, align 4
  %73 = lshr i64 %72, 32
  %74 = and i64 %73, 536870911
  %75 = sub nsw i64 0, %74
  %76 = getelementptr inbounds %struct.Gia_Obj_t_, ptr %.tr1620, i64 %75
  %.val = load i64, ptr %76, align 4
  %77 = and i64 %.val, 2147483648
  %.not.i.i = icmp ne i64 %77, 0
  %78 = and i64 %.val, 536870911
  %79 = icmp eq i64 %78, 536870911
  %narrow.i.not.i = or i1 %.not.i.i, %79
  br i1 %narrow.i.not.i, label %Gia_ObjIsXor.exit.thread, label %Gia_ObjIsXor.exit
}